target datalayout = "e-m:e-p270:32:32-p271:32:32-p272:64:64-i64:64-i128:128-f80:128-n8:16:32:64-S128"
target triple = "x86_64-pc-linux-gnu"

; Function Attrs: nounwind uwtable
define internal i64 @timelib_get_nr(ptr noundef %0, i32 noundef %1) #0 {
  %3 = alloca i64, align 8
  %4 = alloca ptr, align 8
  %5 = alloca i32, align 4
  %6 = alloca ptr, align 8
  %7 = alloca ptr, align 8
  %8 = alloca ptr, align 8
  %9 = alloca i64, align 8
  %10 = alloca i32, align 4
  store ptr %0, ptr %4, align 8
  store i32 %1, ptr %5, align 4
  store i64 -9999999, ptr %9, align 8
  store i32 0, ptr %10, align 4
  br label %11

11:                                               ; preds = %32, %2
  %12 = load ptr, ptr %4, align 8
  %13 = load ptr, ptr %12, align 8
  %14 = load i8, ptr %13, align 1
  %15 = sext i8 %14 to i32
  %16 = icmp slt i32 %15, 48
  br i1 %16, label %23, label %17

17:                                               ; preds = %11
  %18 = load ptr, ptr %4, align 8
  %19 = load ptr, ptr %18, align 8
  %20 = load i8, ptr %19, align 1
  %21 = sext i8 %20 to i32
  %22 = icmp sgt i32 %21, 57
  br label %23

23:                                               ; preds = %17, %11
  %24 = phi i1 [ true, %11 ], [ %22, %17 ]
  br i1 %24, label %25, label %36

25:                                               ; preds = %23
  %26 = load ptr, ptr %4, align 8
  %27 = load ptr, ptr %26, align 8
  %28 = load i8, ptr %27, align 1
  %29 = sext i8 %28 to i32
  %30 = icmp eq i32 %29, 0
  br i1 %30, label %31, label %32

31:                                               ; preds = %25
  store i64 -9999999, ptr %3, align 8
  br label %84

32:                                               ; preds = %25
  %33 = load ptr, ptr %4, align 8
  %34 = load ptr, ptr %33, align 8
  %35 = getelementptr inbounds i8, ptr %34, i32 1
  store ptr %35, ptr %33, align 8
  br label %11

36:                                               ; preds = %23
  %37 = load ptr, ptr %4, align 8
  %38 = load ptr, ptr %37, align 8
  store ptr %38, ptr %6, align 8
  br label %39

39:                                               ; preds = %57, %36
  %40 = load ptr, ptr %4, align 8
  %41 = load ptr, ptr %40, align 8
  %42 = load i8, ptr %41, align 1
  %43 = sext i8 %42 to i32
  %44 = icmp sge i32 %43, 48
  br i1 %44, label %45, label %55

45:                                               ; preds = %39
  %46 = load ptr, ptr %4, align 8
  %47 = load ptr, ptr %46, align 8
  %48 = load i8, ptr %47, align 1
  %49 = sext i8 %48 to i32
  %50 = icmp sle i32 %49, 57
  br i1 %50, label %51, label %55

51:                                               ; preds = %45
  %52 = load i32, ptr %10, align 4
  %53 = load i32, ptr %5, align 4
  %54 = icmp slt i32 %52, %53
  br label %55

55:                                               ; preds = %51, %45, %39
  %56 = phi i1 [ false, %45 ], [ false, %39 ], [ %54, %51 ]
  br i1 %56, label %57, label %63

57:                                               ; preds = %55
  %58 = load ptr, ptr %4, align 8
  %59 = load ptr, ptr %58, align 8
  %60 = getelementptr inbounds i8, ptr %59, i32 1
  store ptr %60, ptr %58, align 8
  %61 = load i32, ptr %10, align 4
  %62 = add nsw i32 %61, 1
  store i32 %62, ptr %10, align 4
  br label %39

63:                                               ; preds = %55
  %64 = load ptr, ptr %4, align 8
  %65 = load ptr, ptr %64, align 8
  store ptr %65, ptr %7, align 8
  %66 = load ptr, ptr %7, align 8
  %67 = load ptr, ptr %6, align 8
  %68 = ptrtoint ptr %66 to i64
  %69 = ptrtoint ptr %67 to i64
  %70 = sub i64 %68, %69
  %71 = add nsw i64 %70, 1
  %72 = call noalias ptr @_ecalloc(i64 noundef 1, i64 noundef %71) #13
  store ptr %72, ptr %8, align 8
  %73 = load ptr, ptr %8, align 8
  %74 = load ptr, ptr %6, align 8
  %75 = load ptr, ptr %7, align 8
  %76 = load ptr, ptr %6, align 8
  %77 = ptrtoint ptr %75 to i64
  %78 = ptrtoint ptr %76 to i64
  %79 = sub i64 %77, %78
  call void @llvm.memcpy.p0.p0.i64(ptr align 1 %73, ptr align 1 %74, i64 %79, i1 false)
  %80 = load ptr, ptr %8, align 8
  %81 = call i64 @strtoll(ptr noundef %80, ptr noundef null, i32 noundef 10) #14
  store i64 %81, ptr %9, align 8
  %82 = load ptr, ptr %8, align 8
  call void @_efree(ptr noundef %82)
  %83 = load i64, ptr %9, align 8
  store i64 %83, ptr %3, align 8
  br label %84

84:                                               ; preds = %63, %31
  %85 = load i64, ptr %3, align 8
  ret i64 %85
}

; Function Attrs: nounwind uwtable
define internal i64 @timelib_get_unsigned_nr(ptr noundef %0, i32 noundef %1) #0 {
  %3 = alloca i64, align 8
  %4 = alloca ptr, align 8
  %5 = alloca i32, align 4
  %6 = alloca i64, align 8
  store ptr %0, ptr %4, align 8
  store i32 %1, ptr %5, align 4
  store i64 1, ptr %6, align 8
  br label %7

7:                                                ; preds = %40, %2
  %8 = load ptr, ptr %4, align 8
  %9 = load ptr, ptr %8, align 8
  %10 = load i8, ptr %9, align 1
  %11 = sext i8 %10 to i32
  %12 = icmp slt i32 %11, 48
  br i1 %12, label %19, label %13

13:                                               ; preds = %7
  %14 = load ptr, ptr %4, align 8
  %15 = load ptr, ptr %14, align 8
  %16 = load i8, ptr %15, align 1
  %17 = sext i8 %16 to i32
  %18 = icmp sgt i32 %17, 57
  br i1 %18, label %19, label %31

19:                                               ; preds = %13, %7
  %20 = load ptr, ptr %4, align 8
  %21 = load ptr, ptr %20, align 8
  %22 = load i8, ptr %21, align 1
  %23 = sext i8 %22 to i32
  %24 = icmp ne i32 %23, 43
  br i1 %24, label %25, label %31

25:                                               ; preds = %19
  %26 = load ptr, ptr %4, align 8
  %27 = load ptr, ptr %26, align 8
  %28 = load i8, ptr %27, align 1
  %29 = sext i8 %28 to i32
  %30 = icmp ne i32 %29, 45
  br label %31

31:                                               ; preds = %25, %19, %13
  %32 = phi i1 [ false, %19 ], [ false, %13 ], [ %30, %25 ]
  br i1 %32, label %33, label %44

33:                                               ; preds = %31
  %34 = load ptr, ptr %4, align 8
  %35 = load ptr, ptr %34, align 8
  %36 = load i8, ptr %35, align 1
  %37 = sext i8 %36 to i32
  %38 = icmp eq i32 %37, 0
  br i1 %38, label %39, label %40

39:                                               ; preds = %33
  store i64 -9999999, ptr %3, align 8
  br label %78

40:                                               ; preds = %33
  %41 = load ptr, ptr %4, align 8
  %42 = load ptr, ptr %41, align 8
  %43 = getelementptr inbounds i8, ptr %42, i32 1
  store ptr %43, ptr %41, align 8
  br label %7

44:                                               ; preds = %31
  br label %45

45:                                               ; preds = %68, %44
  %46 = load ptr, ptr %4, align 8
  %47 = load ptr, ptr %46, align 8
  %48 = load i8, ptr %47, align 1
  %49 = sext i8 %48 to i32
  %50 = icmp eq i32 %49, 43
  br i1 %50, label %57, label %51

51:                                               ; preds = %45
  %52 = load ptr, ptr %4, align 8
  %53 = load ptr, ptr %52, align 8
  %54 = load i8, ptr %53, align 1
  %55 = sext i8 %54 to i32
  %56 = icmp eq i32 %55, 45
  br label %57

57:                                               ; preds = %51, %45
  %58 = phi i1 [ true, %45 ], [ %56, %51 ]
  br i1 %58, label %59, label %72

59:                                               ; preds = %57
  %60 = load ptr, ptr %4, align 8
  %61 = load ptr, ptr %60, align 8
  %62 = load i8, ptr %61, align 1
  %63 = sext i8 %62 to i32
  %64 = icmp eq i32 %63, 45
  br i1 %64, label %65, label %68

65:                                               ; preds = %59
  %66 = load i64, ptr %6, align 8
  %67 = mul i64 %66, -1
  store i64 %67, ptr %6, align 8
  br label %68

68:                                               ; preds = %65, %59
  %69 = load ptr, ptr %4, align 8
  %70 = load ptr, ptr %69, align 8
  %71 = getelementptr inbounds i8, ptr %70, i32 1
  store ptr %71, ptr %69, align 8
  br label %45

72:                                               ; preds = %57
  %73 = load i64, ptr %6, align 8
  %74 = load ptr, ptr %4, align 8
  %75 = load i32, ptr %5, align 4
  %76 = call i64 @timelib_get_nr(ptr noundef %74, i32 noundef %75)
  %77 = mul i64 %73, %76
  store i64 %77, ptr %3, align 8
  br label %78

78:                                               ; preds = %72, %39
  %79 = load i64, ptr %3, align 8
  ret i64 %79
}