; Function Attrs: nounwind uwtable
define internal fastcc i64 @timelib_get_unsigned_nr(ptr nocapture noundef %0, i32 noundef %1) unnamed_addr #0 {
  %.promoted = load ptr, ptr %0, align 8
  %3 = load i8, ptr %.promoted, align 1
  %4 = add i8 %3, -58
  %or.cond24 = icmp ult i8 %4, -10
  br i1 %or.cond24, label %.lr.ph, label %.critedge.preheader

.lr.ph:                                           ; preds = %2, %7
  %5 = phi i8 [ %9, %7 ], [ %3, %2 ]
  %6 = phi ptr [ %8, %7 ], [ %.promoted, %2 ]
  switch i8 %5, label %7 [
    i8 43, label %.critedge.preheader
    i8 45, label %.critedge.preheader
    i8 0, label %.loopexit
  ]

7:                                                ; preds = %.lr.ph
  %8 = getelementptr inbounds i8, ptr %6, i64 1
  store ptr %8, ptr %0, align 8
  %9 = load i8, ptr %8, align 1
  %10 = add i8 %9, -58
  %or.cond = icmp ult i8 %10, -10
  br i1 %or.cond, label %.lr.ph, label %.critedge.preheader

.critedge.preheader:                              ; preds = %7, %.lr.ph, %.lr.ph, %2
  %.ph = phi i8 [ %3, %2 ], [ %5, %.lr.ph ], [ %5, %.lr.ph ], [ %9, %7 ]
  %.ph40 = phi ptr [ %.promoted, %2 ], [ %6, %.lr.ph ], [ %6, %.lr.ph ], [ %8, %7 ]
  br label %.critedge

.critedge:                                        ; preds = %.critedge.preheader, %.critedge2
  %11 = phi i8 [ %.pre, %.critedge2 ], [ %.ph, %.critedge.preheader ]
  %12 = phi ptr [ %15, %.critedge2 ], [ %.ph40, %.critedge.preheader ]
  %.0 = phi i64 [ %spec.select, %.critedge2 ], [ 1, %.critedge.preheader ]
  switch i8 %11, label %16 [
    i8 43, label %.critedge2
    i8 45, label %.critedge2
  ]

.critedge2:                                       ; preds = %.critedge, %.critedge
  %13 = icmp eq i8 %11, 45
  %14 = sub nsw i64 0, %.0
  %spec.select = select i1 %13, i64 %14, i64 %.0
  %15 = getelementptr inbounds i8, ptr %12, i64 1
  store ptr %15, ptr %0, align 8
  %.pre = load i8, ptr %15, align 1
  br label %.critedge

16:                                               ; preds = %.critedge
  %17 = add i8 %11, -58
  %or.cond30.i = icmp ult i8 %17, -10
  br i1 %or.cond30.i, label %.critedge.i, label %.preheader.i

.preheader.i:                                     ; preds = %22, %16
  %.promoted31.i = phi ptr [ %12, %16 ], [ %23, %22 ]
  %18 = icmp sgt i32 %1, 0
  br i1 %18, label %.lr.ph.i, label %.critedge2.i

.critedge.i:                                      ; preds = %16, %22
  %19 = phi i8 [ %24, %22 ], [ %11, %16 ]
  %20 = phi ptr [ %23, %22 ], [ %12, %16 ]
  %21 = icmp eq i8 %19, 0
  br i1 %21, label %timelib_get_nr.exit, label %22

22:                                               ; preds = %.critedge.i
  %23 = getelementptr inbounds i8, ptr %20, i64 1
  store ptr %23, ptr %0, align 8
  %24 = load i8, ptr %23, align 1
  %25 = add i8 %24, -58
  %or.cond.i = icmp ult i8 %25, -10
  br i1 %or.cond.i, label %.critedge.i, label %.preheader.i

.lr.ph.i:                                         ; preds = %.preheader.i, %.lr.ph.i
  %.034.i = phi i32 [ %28, %.lr.ph.i ], [ 0, %.preheader.i ]
  %26 = phi ptr [ %27, %.lr.ph.i ], [ %.promoted31.i, %.preheader.i ]
  %27 = getelementptr inbounds i8, ptr %26, i64 1
  store ptr %27, ptr %0, align 8
  %28 = add nuw nsw i32 %.034.i, 1
  %29 = load i8, ptr %27, align 1
  %30 = add i8 %29, -48
  %or.cond26.i = icmp ult i8 %30, 10
  %31 = icmp slt i32 %28, %1
  %or.cond27.i = select i1 %or.cond26.i, i1 %31, i1 false
  br i1 %or.cond27.i, label %.lr.ph.i, label %.critedge2.i

.critedge2.i:                                     ; preds = %.lr.ph.i, %.preheader.i
  %.lcssa.i = phi ptr [ %.promoted31.i, %.preheader.i ], [ %27, %.lr.ph.i ]
  %32 = ptrtoint ptr %.lcssa.i to i64
  %33 = ptrtoint ptr %.promoted31.i to i64
  %34 = sub i64 %32, %33
  %35 = add nsw i64 %34, 1
  %36 = tail call noalias ptr @_ecalloc(i64 noundef 1, i64 noundef %35) #14
  tail call void @llvm.memcpy.p0.p0.i64(ptr align 1 %36, ptr nonnull align 1 %.promoted31.i, i64 %34, i1 false)
  %37 = tail call i64 @strtoll(ptr nocapture noundef %36, ptr noundef null, i32 noundef 10) #10
  tail call void @_efree(ptr noundef %36) #10
  br label %timelib_get_nr.exit

timelib_get_nr.exit:                              ; preds = %.critedge.i, %.critedge2.i
  %.023.i = phi i64 [ %37, %.critedge2.i ], [ -9999999, %.critedge.i ]
  %38 = mul i64 %.023.i, %.0
  br label %.loopexit

.loopexit:                                        ; preds = %.lr.ph, %timelib_get_nr.exit
  %.016 = phi i64 [ %38, %timelib_get_nr.exit ], [ -9999999, %.lr.ph ]
  ret i64 %.016
}